; ModuleID = '14/104.c'
source_filename = "14/104.c"
target datalayout = "e-m:e-p270:32:32-p271:32:32-p272:64:64-i64:64-f80:128-n8:16:32:64-S128"
target triple = "x86_64-pc-linux-gnu"

%struct.student = type { i32, i32, i32, i32, %struct.student* }

@.str = private unnamed_addr constant [9 x i8] c"%d %d %d\00", align 1
@.str.1 = private unnamed_addr constant [7 x i8] c"%d %d\0A\00", align 1
@.str.2 = private unnamed_addr constant [3 x i8] c"%d\00", align 1

; Function Attrs: noinline nounwind uwtable
define dso_local %struct.student* @creat(i64 %0) #0 {
  %2 = alloca i64, align 8
  %3 = alloca i64, align 8
  %4 = alloca %struct.student*, align 8
  %5 = alloca %struct.student*, align 8
  %6 = alloca %struct.student*, align 8
  store i64 %0, i64* %2, align 8
  %7 = call noalias i8* @malloc(i64 100) #3
  %8 = bitcast i8* %7 to %struct.student*
  store %struct.student* %8, %struct.student** %4, align 8
  %9 = call noalias i8* @malloc(i64 100) #3
  %10 = bitcast i8* %9 to %struct.student*
  store %struct.student* %10, %struct.student** %5, align 8
  %11 = load %struct.student*, %struct.student** %5, align 8
  store %struct.student* %11, %struct.student** %6, align 8
  %12 = load %struct.student*, %struct.student** %4, align 8
  %13 = getelementptr inbounds %struct.student, %struct.student* %12, i32 0, i32 4
  store %struct.student* %11, %struct.student** %13, align 8
  %14 = load %struct.student*, %struct.student** %5, align 8
  %15 = getelementptr inbounds %struct.student, %struct.student* %14, i32 0, i32 0
  %16 = load %struct.student*, %struct.student** %5, align 8
  %17 = getelementptr inbounds %struct.student, %struct.student* %16, i32 0, i32 1
  %18 = load %struct.student*, %struct.student** %5, align 8
  %19 = getelementptr inbounds %struct.student, %struct.student* %18, i32 0, i32 2
  %20 = call i32 (i8*, ...) @__isoc99_scanf(i8* getelementptr inbounds ([9 x i8], [9 x i8]* @.str, i64 0, i64 0), i32* %15, i32* %17, i32* %19)
  %21 = load %struct.student*, %struct.student** %5, align 8
  %22 = getelementptr inbounds %struct.student, %struct.student* %21, i32 0, i32 1
  %23 = load i32, i32* %22, align 4
  %24 = load %struct.student*, %struct.student** %5, align 8
  %25 = getelementptr inbounds %struct.student, %struct.student* %24, i32 0, i32 2
  %26 = load i32, i32* %25, align 8
  %27 = add nsw i32 %23, %26
  %28 = load %struct.student*, %struct.student** %5, align 8
  %29 = getelementptr inbounds %struct.student, %struct.student* %28, i32 0, i32 3
  store i32 %27, i32* %29, align 4
  store i64 1, i64* %3, align 8
  br label %30

30:                                               ; preds = %59, %1
  %31 = load i64, i64* %3, align 8
  %32 = load i64, i64* %2, align 8
  %33 = icmp slt i64 %31, %32
  br i1 %33, label %34, label %62

34:                                               ; preds = %30
  %35 = call noalias i8* @malloc(i64 100) #3
  %36 = bitcast i8* %35 to %struct.student*
  store %struct.student* %36, %struct.student** %5, align 8
  %37 = load %struct.student*, %struct.student** %5, align 8
  %38 = getelementptr inbounds %struct.student, %struct.student* %37, i32 0, i32 0
  %39 = load %struct.student*, %struct.student** %5, align 8
  %40 = getelementptr inbounds %struct.student, %struct.student* %39, i32 0, i32 1
  %41 = load %struct.student*, %struct.student** %5, align 8
  %42 = getelementptr inbounds %struct.student, %struct.student* %41, i32 0, i32 2
  %43 = call i32 (i8*, ...) @__isoc99_scanf(i8* getelementptr inbounds ([9 x i8], [9 x i8]* @.str, i64 0, i64 0), i32* %38, i32* %40, i32* %42)
  %44 = load %struct.student*, %struct.student** %5, align 8
  %45 = getelementptr inbounds %struct.student, %struct.student* %44, i32 0, i32 1
  %46 = load i32, i32* %45, align 4
  %47 = load %struct.student*, %struct.student** %5, align 8
  %48 = getelementptr inbounds %struct.student, %struct.student* %47, i32 0, i32 2
  %49 = load i32, i32* %48, align 8
  %50 = add nsw i32 %46, %49
  %51 = load %struct.student*, %struct.student** %5, align 8
  %52 = getelementptr inbounds %struct.student, %struct.student* %51, i32 0, i32 3
  store i32 %50, i32* %52, align 4
  %53 = load %struct.student*, %struct.student** %5, align 8
  %54 = load %struct.student*, %struct.student** %6, align 8
  %55 = getelementptr inbounds %struct.student, %struct.student* %54, i32 0, i32 4
  store %struct.student* %53, %struct.student** %55, align 8
  %56 = load %struct.student*, %struct.student** %5, align 8
  store %struct.student* %56, %struct.student** %6, align 8
  %57 = load %struct.student*, %struct.student** %5, align 8
  %58 = getelementptr inbounds %struct.student, %struct.student* %57, i32 0, i32 4
  store %struct.student* null, %struct.student** %58, align 8
  br label %59

59:                                               ; preds = %34
  %60 = load i64, i64* %3, align 8
  %61 = add nsw i64 %60, 1
  store i64 %61, i64* %3, align 8
  br label %30

62:                                               ; preds = %30
  %63 = load %struct.student*, %struct.student** %4, align 8
  ret %struct.student* %63
}

; Function Attrs: nounwind
declare dso_local noalias i8* @malloc(i64) #1

declare dso_local i32 @__isoc99_scanf(i8*, ...) #2

; Function Attrs: noinline nounwind uwtable
define dso_local void @sort(%struct.student* %0) #0 {
  %2 = alloca %struct.student*, align 8
  %3 = alloca %struct.student*, align 8
  %4 = alloca %struct.student*, align 8
  %5 = alloca %struct.student*, align 8
  %6 = alloca %struct.student*, align 8
  %7 = alloca i32, align 4
  %8 = alloca i32, align 4
  %9 = alloca i32, align 4
  store %struct.student* %0, %struct.student** %2, align 8
  %10 = load %struct.student*, %struct.student** %2, align 8
  %11 = getelementptr inbounds %struct.student, %struct.student* %10, i32 0, i32 4
  %12 = load %struct.student*, %struct.student** %11, align 8
  store %struct.student* %12, %struct.student** %3, align 8
  %13 = load %struct.student*, %struct.student** %3, align 8
  %14 = getelementptr inbounds %struct.student, %struct.student* %13, i32 0, i32 3
  %15 = load i32, i32* %14, align 4
  store i32 %15, i32* %7, align 4
  br label %16

16:                                               ; preds = %31, %1
  %17 = load %struct.student*, %struct.student** %3, align 8
  %18 = icmp ne %struct.student* %17, null
  br i1 %18, label %19, label %35

19:                                               ; preds = %16
  %20 = load %struct.student*, %struct.student** %3, align 8
  %21 = getelementptr inbounds %struct.student, %struct.student* %20, i32 0, i32 3
  %22 = load i32, i32* %21, align 4
  %23 = load i32, i32* %7, align 4
  %24 = icmp sgt i32 %22, %23
  br i1 %24, label %25, label %30

25:                                               ; preds = %19
  %26 = load %struct.student*, %struct.student** %3, align 8
  %27 = getelementptr inbounds %struct.student, %struct.student* %26, i32 0, i32 3
  %28 = load i32, i32* %27, align 4
  store i32 %28, i32* %7, align 4
  %29 = load %struct.student*, %struct.student** %3, align 8
  store %struct.student* %29, %struct.student** %4, align 8
  br label %30

30:                                               ; preds = %25, %19
  br label %31

31:                                               ; preds = %30
  %32 = load %struct.student*, %struct.student** %3, align 8
  %33 = getelementptr inbounds %struct.student, %struct.student* %32, i32 0, i32 4
  %34 = load %struct.student*, %struct.student** %33, align 8
  store %struct.student* %34, %struct.student** %3, align 8
  br label %16

35:                                               ; preds = %16
  %36 = load %struct.student*, %struct.student** %4, align 8
  %37 = getelementptr inbounds %struct.student, %struct.student* %36, i32 0, i32 0
  %38 = load i32, i32* %37, align 8
  %39 = load %struct.student*, %struct.student** %4, align 8
  %40 = getelementptr inbounds %struct.student, %struct.student* %39, i32 0, i32 3
  %41 = load i32, i32* %40, align 4
  %42 = call i32 (i8*, ...) @printf(i8* getelementptr inbounds ([7 x i8], [7 x i8]* @.str.1, i64 0, i64 0), i32 %38, i32 %41)
  %43 = load %struct.student*, %struct.student** %2, align 8
  %44 = getelementptr inbounds %struct.student, %struct.student* %43, i32 0, i32 4
  %45 = load %struct.student*, %struct.student** %44, align 8
  store %struct.student* %45, %struct.student** %3, align 8
  %46 = load %struct.student*, %struct.student** %3, align 8
  %47 = getelementptr inbounds %struct.student, %struct.student* %46, i32 0, i32 3
  %48 = load i32, i32* %47, align 4
  store i32 %48, i32* %8, align 4
  br label %49

49:                                               ; preds = %68, %35
  %50 = load %struct.student*, %struct.student** %3, align 8
  %51 = icmp ne %struct.student* %50, null
  br i1 %51, label %52, label %72

52:                                               ; preds = %49
  %53 = load %struct.student*, %struct.student** %3, align 8
  %54 = getelementptr inbounds %struct.student, %struct.student* %53, i32 0, i32 3
  %55 = load i32, i32* %54, align 4
  %56 = load i32, i32* %8, align 4
  %57 = icmp sgt i32 %55, %56
  br i1 %57, label %58, label %67

58:                                               ; preds = %52
  %59 = load %struct.student*, %struct.student** %3, align 8
  %60 = load %struct.student*, %struct.student** %4, align 8
  %61 = icmp ne %struct.student* %59, %60
  br i1 %61, label %62, label %67

62:                                               ; preds = %58
  %63 = load %struct.student*, %struct.student** %3, align 8
  %64 = getelementptr inbounds %struct.student, %struct.student* %63, i32 0, i32 3
  %65 = load i32, i32* %64, align 4
  store i32 %65, i32* %8, align 4
  %66 = load %struct.student*, %struct.student** %3, align 8
  store %struct.student* %66, %struct.student** %5, align 8
  br label %67

67:                                               ; preds = %62, %58, %52
  br label %68

68:                                               ; preds = %67
  %69 = load %struct.student*, %struct.student** %3, align 8
  %70 = getelementptr inbounds %struct.student, %struct.student* %69, i32 0, i32 4
  %71 = load %struct.student*, %struct.student** %70, align 8
  store %struct.student* %71, %struct.student** %3, align 8
  br label %49

72:                                               ; preds = %49
  %73 = load %struct.student*, %struct.student** %5, align 8
  %74 = getelementptr inbounds %struct.student, %struct.student* %73, i32 0, i32 0
  %75 = load i32, i32* %74, align 8
  %76 = load %struct.student*, %struct.student** %5, align 8
  %77 = getelementptr inbounds %struct.student, %struct.student* %76, i32 0, i32 3
  %78 = load i32, i32* %77, align 4
  %79 = call i32 (i8*, ...) @printf(i8* getelementptr inbounds ([7 x i8], [7 x i8]* @.str.1, i64 0, i64 0), i32 %75, i32 %78)
  %80 = load %struct.student*, %struct.student** %2, align 8
  %81 = getelementptr inbounds %struct.student, %struct.student* %80, i32 0, i32 4
  %82 = load %struct.student*, %struct.student** %81, align 8
  store %struct.student* %82, %struct.student** %3, align 8
  %83 = load %struct.student*, %struct.student** %3, align 8
  %84 = getelementptr inbounds %struct.student, %struct.student* %83, i32 0, i32 3
  %85 = load i32, i32* %84, align 4
  store i32 %85, i32* %9, align 4
  br label %86

86:                                               ; preds = %109, %72
  %87 = load %struct.student*, %struct.student** %3, align 8
  %88 = icmp ne %struct.student* %87, null
  br i1 %88, label %89, label %113

89:                                               ; preds = %86
  %90 = load %struct.student*, %struct.student** %3, align 8
  %91 = getelementptr inbounds %struct.student, %struct.student* %90, i32 0, i32 3
  %92 = load i32, i32* %91, align 4
  %93 = load i32, i32* %9, align 4
  %94 = icmp sgt i32 %92, %93
  br i1 %94, label %95, label %108

95:                                               ; preds = %89
  %96 = load %struct.student*, %struct.student** %3, align 8
  %97 = load %struct.student*, %struct.student** %4, align 8
  %98 = icmp ne %struct.student* %96, %97
  br i1 %98, label %99, label %108

99:                                               ; preds = %95
  %100 = load %struct.student*, %struct.student** %3, align 8
  %101 = load %struct.student*, %struct.student** %5, align 8
  %102 = icmp ne %struct.student* %100, %101
  br i1 %102, label %103, label %108

103:                                              ; preds = %99
  %104 = load %struct.student*, %struct.student** %3, align 8
  %105 = getelementptr inbounds %struct.student, %struct.student* %104, i32 0, i32 3
  %106 = load i32, i32* %105, align 4
  store i32 %106, i32* %9, align 4
  %107 = load %struct.student*, %struct.student** %3, align 8
  store %struct.student* %107, %struct.student** %6, align 8
  br label %108

108:                                              ; preds = %103, %99, %95, %89
  br label %109

109:                                              ; preds = %108
  %110 = load %struct.student*, %struct.student** %3, align 8
  %111 = getelementptr inbounds %struct.student, %struct.student* %110, i32 0, i32 4
  %112 = load %struct.student*, %struct.student** %111, align 8
  store %struct.student* %112, %struct.student** %3, align 8
  br label %86

113:                                              ; preds = %86
  %114 = load %struct.student*, %struct.student** %6, align 8
  %115 = getelementptr inbounds %struct.student, %struct.student* %114, i32 0, i32 0
  %116 = load i32, i32* %115, align 8
  %117 = load %struct.student*, %struct.student** %6, align 8
  %118 = getelementptr inbounds %struct.student, %struct.student* %117, i32 0, i32 3
  %119 = load i32, i32* %118, align 4
  %120 = call i32 (i8*, ...) @printf(i8* getelementptr inbounds ([7 x i8], [7 x i8]* @.str.1, i64 0, i64 0), i32 %116, i32 %119)
  ret void
}

declare dso_local i32 @printf(i8*, ...) #2

; Function Attrs: noinline nounwind uwtable
define dso_local i32 @main() #0 {
  %1 = alloca i32, align 4
  %2 = alloca i64, align 8
  %3 = alloca %struct.student*, align 8
  store i32 0, i32* %1, align 4
  %4 = call i32 (i8*, ...) @__isoc99_scanf(i8* getelementptr inbounds ([3 x i8], [3 x i8]* @.str.2, i64 0, i64 0), i64* %2)
  %5 = load i64, i64* %2, align 8
  %6 = call %struct.student* @creat(i64 %5)
  store %struct.student* %6, %struct.student** %3, align 8
  %7 = load %struct.student*, %struct.student** %3, align 8
  call void @sort(%struct.student* %7)
  ret i32 0
}


!llvm.module.flags = !{!0}
!llvm.ident = !{!1}

!0 = !{i32 1, !"wchar_size", i32 4}
!1 = !{!"clang version 10.0.0-4ubuntu1 "}
